target datalayout = "e-m:e-p270:32:32-p271:32:32-p272:64:64-i64:64-i128:128-f80:128-n8:16:32:64-S128"
target triple = "x86_64-pc-linux-gnu"

%struct._cairo_rectangle_int = type { i32, i32, i32, i32 }
%struct._GtkDarktableExpander = type { %struct._GtkBox, i32, ptr, ptr, ptr, ptr, ptr }
%struct._GtkBox = type { %struct._GtkContainer, ptr }
%struct._GtkContainer = type { %struct._GtkWidget, ptr }
%struct._GtkWidget = type { %struct._GObject, ptr }
%struct._GObject = type { %struct._GTypeInstance, i32, ptr }
%struct._GTypeInstance = type { ptr }
%struct._GTypeClass = type { i64 }

@dtgtk_expander_get_type.static_g_define_type_id = internal global i64 0, align 8
@.str = private unnamed_addr constant [28 x i8] c"DTGTK_IS_EXPANDER(expander)\00", align 1
@__func__.dtgtk_expander_set_expanded = private unnamed_addr constant [28 x i8] c"dtgtk_expander_set_expanded\00", align 1
@_last_expanded = internal global ptr null, align 8
@_start_pos = internal global %struct._cairo_rectangle_int zeroinitializer, align 4
@.str.1 = private unnamed_addr constant [32 x i8] c"darkroom/ui/transition_duration\00", align 1

; Function Attrs: nounwind uwtable
define i64 @dtgtk_expander_get_type() #0 {
  %1 = alloca i32, align 4
  %2 = alloca i64, align 8
  %3 = alloca ptr, align 8
  %4 = alloca i64, align 8
  %5 = alloca i64, align 8
  call void @llvm.lifetime.start.p0(i64 8, ptr %2) #10
  call void @llvm.lifetime.start.p0(i64 8, ptr %3) #10
  store ptr @dtgtk_expander_get_type.static_g_define_type_id, ptr %3, align 8, !tbaa !6
  %6 = load ptr, ptr %3, align 8, !tbaa !6
  %7 = load atomic i64, ptr %6 seq_cst, align 8
  store i64 %7, ptr %2, align 8
  %8 = load i64, ptr %2, align 8, !tbaa !11
  store i64 %8, ptr %4, align 8, !tbaa !11
  call void @llvm.lifetime.end.p0(i64 8, ptr %3) #10
  call void @llvm.lifetime.end.p0(i64 8, ptr %2) #10
  %9 = load i64, ptr %4, align 8, !tbaa !11
  %10 = icmp ne i64 %9, 0
  br i1 %10, label %14, label %11

11:                                               ; preds = %0
  %12 = call i32 @g_once_init_enter(ptr noundef @dtgtk_expander_get_type.static_g_define_type_id)
  %13 = icmp ne i32 %12, 0
  br label %14

14:                                               ; preds = %11, %0
  %15 = phi i1 [ false, %0 ], [ %13, %11 ]
  %16 = zext i1 %15 to i32
  store i32 %16, ptr %1, align 4, !tbaa !13
  %17 = load i32, ptr %1, align 4, !tbaa !13
  %18 = icmp ne i32 %17, 0
  br i1 %18, label %19, label %22

19:                                               ; preds = %14
  call void @llvm.lifetime.start.p0(i64 8, ptr %5) #10
  %20 = call i64 @dtgtk_expander_get_type_once()
  store i64 %20, ptr %5, align 8, !tbaa !11
  %21 = load i64, ptr %5, align 8, !tbaa !11
  call void @g_once_init_leave(ptr noundef @dtgtk_expander_get_type.static_g_define_type_id, i64 noundef %21)
  call void @llvm.lifetime.end.p0(i64 8, ptr %5) #10
  br label %22

22:                                               ; preds = %19, %14
  %23 = load i64, ptr @dtgtk_expander_get_type.static_g_define_type_id, align 8, !tbaa !11
  ret i64 %23
}

; Function Attrs: inlinehint nounwind uwtable
define internal i32 @DTGTK_IS_EXPANDER(ptr noundef %0) #4 {
  %2 = alloca ptr, align 8
  %3 = alloca ptr, align 8
  %4 = alloca i64, align 8
  %5 = alloca i32, align 4
  %6 = alloca i32, align 4
  store ptr %0, ptr %2, align 8, !tbaa !30
  call void @llvm.lifetime.start.p0(i64 8, ptr %3) #10
  %7 = load ptr, ptr %2, align 8, !tbaa !30
  store ptr %7, ptr %3, align 8, !tbaa !31
  call void @llvm.lifetime.start.p0(i64 8, ptr %4) #10
  %8 = call i64 @dtgtk_expander_get_type()
  store i64 %8, ptr %4, align 8, !tbaa !11
  call void @llvm.lifetime.start.p0(i64 4, ptr %5) #10
  %9 = load ptr, ptr %3, align 8, !tbaa !31
  %10 = icmp ne ptr %9, null
  br i1 %10, label %12, label %11

11:                                               ; preds = %1
  store i32 0, ptr %5, align 4, !tbaa !13
  br label %31

12:                                               ; preds = %1
  %13 = load ptr, ptr %3, align 8, !tbaa !31
  %14 = getelementptr inbounds nuw %struct._GTypeInstance, ptr %13, i32 0, i32 0
  %15 = load ptr, ptr %14, align 8, !tbaa !33
  %16 = icmp ne ptr %15, null
  br i1 %16, label %17, label %26

17:                                               ; preds = %12
  %18 = load ptr, ptr %3, align 8, !tbaa !31
  %19 = getelementptr inbounds nuw %struct._GTypeInstance, ptr %18, i32 0, i32 0
  %20 = load ptr, ptr %19, align 8, !tbaa !33
  %21 = getelementptr inbounds nuw %struct._GTypeClass, ptr %20, i32 0, i32 0
  %22 = load i64, ptr %21, align 8, !tbaa !34
  %23 = load i64, ptr %4, align 8, !tbaa !11
  %24 = icmp eq i64 %22, %23
  br i1 %24, label %25, label %26

25:                                               ; preds = %17
  store i32 1, ptr %5, align 4, !tbaa !13
  br label %30

26:                                               ; preds = %17, %12
  %27 = load ptr, ptr %3, align 8, !tbaa !31
  %28 = load i64, ptr %4, align 8, !tbaa !11
  %29 = call i32 @g_type_check_instance_is_a(ptr noundef %27, i64 noundef %28) #12
  store i32 %29, ptr %5, align 4, !tbaa !13
  br label %30

30:                                               ; preds = %26, %25
  br label %31

31:                                               ; preds = %30, %11
  %32 = load i32, ptr %5, align 4, !tbaa !13
  store i32 %32, ptr %6, align 4, !tbaa !13
  call void @llvm.lifetime.end.p0(i64 4, ptr %5) #10
  call void @llvm.lifetime.end.p0(i64 8, ptr %4) #10
  call void @llvm.lifetime.end.p0(i64 8, ptr %3) #10
  %33 = load i32, ptr %6, align 4, !tbaa !13
  ret i32 %33
}

; Function Attrs: nounwind uwtable
define void @dtgtk_expander_set_expanded(ptr noundef %0, i32 noundef %1) #0 {
  %3 = alloca ptr, align 8
  %4 = alloca i32, align 4
  %5 = alloca i32, align 4
  %6 = alloca i32, align 4
  %7 = alloca ptr, align 8
  %8 = alloca ptr, align 8
  store ptr %0, ptr %3, align 8, !tbaa !15
  store i32 %1, ptr %4, align 4, !tbaa !13
  br label %9

9:                                                ; preds = %2
  call void @llvm.lifetime.start.p0(i64 4, ptr %5) #10
  %10 = load ptr, ptr %3, align 8, !tbaa !15
  %11 = call i32 @DTGTK_IS_EXPANDER(ptr noundef %10)
  %12 = icmp ne i32 %11, 0
  br i1 %12, label %13, label %14

13:                                               ; preds = %9
  store i32 1, ptr %5, align 4, !tbaa !13
  br label %15

14:                                               ; preds = %9
  store i32 0, ptr %5, align 4, !tbaa !13
  br label %15

15:                                               ; preds = %14, %13
  %16 = load i32, ptr %5, align 4, !tbaa !13
  store i32 %16, ptr %6, align 4, !tbaa !13
  call void @llvm.lifetime.end.p0(i64 4, ptr %5) #10
  %17 = load i32, ptr %6, align 4, !tbaa !13
  %18 = sext i32 %17 to i64
  %19 = call i64 @llvm.expect.i64(i64 %18, i64 1)
  %20 = icmp ne i64 %19, 0
  br i1 %20, label %21, label %22

21:                                               ; preds = %15
  br label %23

22:                                               ; preds = %15
  call void @g_return_if_fail_warning(ptr noundef null, ptr noundef @__func__.dtgtk_expander_set_expanded, ptr noundef @.str)
  br label %80

23:                                               ; preds = %21
  br label %24

24:                                               ; preds = %23
  %25 = load i32, ptr %4, align 4, !tbaa !13
  %26 = icmp ne i32 %25, 0
  %27 = zext i1 %26 to i32
  store i32 %27, ptr %4, align 4, !tbaa !13
  %28 = load ptr, ptr %3, align 8, !tbaa !15
  %29 = getelementptr inbounds nuw %struct._GtkDarktableExpander, ptr %28, i32 0, i32 1
  %30 = load i32, ptr %29, align 8, !tbaa !40
  %31 = load i32, ptr %4, align 4, !tbaa !13
  %32 = icmp ne i32 %30, %31
  br i1 %32, label %33, label %80

33:                                               ; preds = %24
  %34 = load i32, ptr %4, align 4, !tbaa !13
  %35 = load ptr, ptr %3, align 8, !tbaa !15
  %36 = getelementptr inbounds nuw %struct._GtkDarktableExpander, ptr %35, i32 0, i32 1
  store i32 %34, ptr %36, align 8, !tbaa !40
  %37 = load i32, ptr %4, align 4, !tbaa !13
  %38 = icmp ne i32 %37, 0
  br i1 %38, label %39, label %57

39:                                               ; preds = %33
  %40 = load ptr, ptr %3, align 8, !tbaa !15
  %41 = call i64 @gtk_widget_get_type() #11
  %42 = call ptr @g_type_check_instance_cast(ptr noundef %40, i64 noundef %41)
  store ptr %42, ptr @_last_expanded, align 8, !tbaa !41
  call void @llvm.lifetime.start.p0(i64 8, ptr %7) #10
  %43 = load ptr, ptr @_last_expanded, align 8, !tbaa !41
  %44 = call i64 @gtk_scrolled_window_get_type() #11
  %45 = call ptr @gtk_widget_get_ancestor(ptr noundef %43, i64 noundef %44)
  store ptr %45, ptr %7, align 8, !tbaa !41
  %46 = load ptr, ptr %7, align 8, !tbaa !41
  %47 = icmp ne ptr %46, null
  br i1 %47, label %48, label %56

48:                                               ; preds = %39
  %49 = load ptr, ptr @_last_expanded, align 8, !tbaa !41
  call void @gtk_widget_get_allocation(ptr noundef %49, ptr noundef @_start_pos)
  %50 = load ptr, ptr %7, align 8, !tbaa !41
  %51 = call i64 @gtk_scrolled_window_get_type() #11
  %52 = call ptr @g_type_check_instance_cast(ptr noundef %50, i64 noundef %51)
  %53 = call ptr @gtk_scrolled_window_get_vadjustment(ptr noundef %52)
  %54 = call reassoc nsz arcp contract afn double @gtk_adjustment_get_value(ptr noundef %53)
  %55 = fptosi double %54 to i32
  store i32 %55, ptr @_start_pos, align 4, !tbaa !42
  br label %56

56:                                               ; preds = %48, %39
  call void @llvm.lifetime.end.p0(i64 8, ptr %7) #10
  br label %57

57:                                               ; preds = %56, %33
  call void @llvm.lifetime.start.p0(i64 8, ptr %8) #10
  %58 = load ptr, ptr %3, align 8, !tbaa !15
  %59 = getelementptr inbounds nuw %struct._GtkDarktableExpander, ptr %58, i32 0, i32 5
  %60 = load ptr, ptr %59, align 8, !tbaa !38
  store ptr %60, ptr %8, align 8, !tbaa !41
  %61 = load ptr, ptr %8, align 8, !tbaa !41
  %62 = icmp ne ptr %61, null
  br i1 %62, label %63, label %79

63:                                               ; preds = %57
  %64 = load ptr, ptr %8, align 8, !tbaa !41
  call void @gtk_widget_set_visible(ptr noundef %64, i32 noundef 1)
  %65 = load ptr, ptr %3, align 8, !tbaa !15
  %66 = getelementptr inbounds nuw %struct._GtkDarktableExpander, ptr %65, i32 0, i32 2
  %67 = load ptr, ptr %66, align 8, !tbaa !17
  %68 = call i64 @gtk_revealer_get_type() #11
  %69 = call ptr @g_type_check_instance_cast(ptr noundef %67, i64 noundef %68)
  %70 = call i32 @dt_conf_get_int(ptr noundef @.str.1)
  call void @gtk_revealer_set_transition_duration(ptr noundef %69, i32 noundef %70)
  %71 = load ptr, ptr %3, align 8, !tbaa !15
  %72 = getelementptr inbounds nuw %struct._GtkDarktableExpander, ptr %71, i32 0, i32 2
  %73 = load ptr, ptr %72, align 8, !tbaa !17
  %74 = call i64 @gtk_revealer_get_type() #11
  %75 = call ptr @g_type_check_instance_cast(ptr noundef %73, i64 noundef %74)
  %76 = load ptr, ptr %3, align 8, !tbaa !15
  %77 = getelementptr inbounds nuw %struct._GtkDarktableExpander, ptr %76, i32 0, i32 1
  %78 = load i32, ptr %77, align 8, !tbaa !40
  call void @gtk_revealer_set_reveal_child(ptr noundef %75, i32 noundef %78)
  br label %79

79:                                               ; preds = %63, %57
  call void @llvm.lifetime.end.p0(i64 8, ptr %8) #10
  br label %80

80:                                               ; preds = %22, %79, %24
  ret void
}