; Function Attrs: nounwind uwtable
define void @dtgtk_expander_set_expanded(ptr noundef %0, i32 noundef %1) local_unnamed_addr #0 {
  %3 = load atomic i64, ptr @dtgtk_expander_get_type.static_g_define_type_id seq_cst, align 8
  %.not.i.i = icmp eq i64 %3, 0
  br i1 %.not.i.i, label %4, label %dtgtk_expander_get_type.exit.i

4:                                                ; preds = %2
  %5 = tail call i32 @g_once_init_enter(ptr noundef nonnull @dtgtk_expander_get_type.static_g_define_type_id) #10
  %.not4.i.i = icmp eq i32 %5, 0
  br i1 %.not4.i.i, label %dtgtk_expander_get_type.exit.i, label %6

6:                                                ; preds = %4
  %7 = tail call fastcc i64 @dtgtk_expander_get_type_once()
  tail call void @g_once_init_leave(ptr noundef nonnull @dtgtk_expander_get_type.static_g_define_type_id, i64 noundef %7) #10
  br label %dtgtk_expander_get_type.exit.i

dtgtk_expander_get_type.exit.i:                   ; preds = %6, %4, %2
  %8 = load i64, ptr @dtgtk_expander_get_type.static_g_define_type_id, align 8, !tbaa !6
  %.not.i = icmp eq ptr %0, null
  br i1 %.not.i, label %DTGTK_IS_EXPANDER.exit.thread, label %9

9:                                                ; preds = %dtgtk_expander_get_type.exit.i
  %10 = load ptr, ptr %0, align 8, !tbaa !10
  %.not10.i = icmp eq ptr %10, null
  br i1 %.not10.i, label %DTGTK_IS_EXPANDER.exit, label %11

11:                                               ; preds = %9
  %12 = load i64, ptr %10, align 8, !tbaa !14
  %13 = icmp eq i64 %12, %8
  br i1 %13, label %DTGTK_IS_EXPANDER.exit.thread26, label %DTGTK_IS_EXPANDER.exit

DTGTK_IS_EXPANDER.exit:                           ; preds = %9, %11
  %14 = tail call i32 @g_type_check_instance_is_a(ptr noundef nonnull readonly %0, i64 noundef %8) #12
  %.not = icmp eq i32 %14, 0
  br i1 %.not, label %DTGTK_IS_EXPANDER.exit.thread, label %DTGTK_IS_EXPANDER.exit.thread26, !prof !16

DTGTK_IS_EXPANDER.exit.thread:                    ; preds = %dtgtk_expander_get_type.exit.i, %DTGTK_IS_EXPANDER.exit
  tail call void @g_return_if_fail_warning(ptr noundef null, ptr noundef nonnull @__func__.dtgtk_expander_set_expanded, ptr noundef nonnull @.str) #10
  br label %43

DTGTK_IS_EXPANDER.exit.thread26:                  ; preds = %11, %DTGTK_IS_EXPANDER.exit
  %15 = icmp ne i32 %1, 0
  %16 = zext i1 %15 to i32
  %17 = getelementptr inbounds nuw i8, ptr %0, i64 48
  %18 = load i32, ptr %17, align 8, !tbaa !33
  %.not21 = icmp eq i32 %18, %16
  br i1 %.not21, label %43, label %19

19:                                               ; preds = %DTGTK_IS_EXPANDER.exit.thread26
  store i32 %16, ptr %17, align 8, !tbaa !33
  br i1 %15, label %20, label %31

20:                                               ; preds = %19
  %21 = tail call i64 @gtk_widget_get_type() #11
  %22 = tail call ptr @g_type_check_instance_cast(ptr noundef nonnull %0, i64 noundef %21) #10
  store ptr %22, ptr @_last_expanded, align 8, !tbaa !34
  %23 = tail call i64 @gtk_scrolled_window_get_type() #11
  %24 = tail call ptr @gtk_widget_get_ancestor(ptr noundef %22, i64 noundef %23) #10
  %.not22 = icmp eq ptr %24, null
  br i1 %.not22, label %31, label %25

25:                                               ; preds = %20
  %26 = load ptr, ptr @_last_expanded, align 8, !tbaa !34
  tail call void @gtk_widget_get_allocation(ptr noundef %26, ptr noundef nonnull @_start_pos) #10
  %27 = tail call ptr @g_type_check_instance_cast(ptr noundef nonnull %24, i64 noundef %23) #10
  %28 = tail call ptr @gtk_scrolled_window_get_vadjustment(ptr noundef %27) #10
  %29 = tail call reassoc nsz arcp contract afn double @gtk_adjustment_get_value(ptr noundef %28) #10
  %30 = fptosi double %29 to i32
  store i32 %30, ptr @_start_pos, align 4, !tbaa !35
  br label %31

31:                                               ; preds = %20, %25, %19
  %32 = getelementptr inbounds nuw i8, ptr %0, i64 80
  %33 = load ptr, ptr %32, align 8, !tbaa !31
  %.not23 = icmp eq ptr %33, null
  br i1 %.not23, label %43, label %34

34:                                               ; preds = %31
  tail call void @gtk_widget_set_visible(ptr noundef nonnull %33, i32 noundef 1) #10
  %35 = getelementptr inbounds nuw i8, ptr %0, i64 56
  %36 = load ptr, ptr %35, align 8, !tbaa !17
  %37 = tail call i64 @gtk_revealer_get_type() #11
  %38 = tail call ptr @g_type_check_instance_cast(ptr noundef %36, i64 noundef %37) #10
  %39 = tail call i32 @dt_conf_get_int(ptr noundef nonnull @.str.1) #10
  tail call void @gtk_revealer_set_transition_duration(ptr noundef %38, i32 noundef %39) #10
  %40 = load ptr, ptr %35, align 8, !tbaa !17
  %41 = tail call ptr @g_type_check_instance_cast(ptr noundef %40, i64 noundef %37) #10
  %42 = load i32, ptr %17, align 8, !tbaa !33
  tail call void @gtk_revealer_set_reveal_child(ptr noundef %41, i32 noundef %42) #10
  br label %43

43:                                               ; preds = %31, %34, %DTGTK_IS_EXPANDER.exit.thread26, %DTGTK_IS_EXPANDER.exit.thread
  ret void
}